target datalayout = "e-m:e-p270:32:32-p271:32:32-p272:64:64-i64:64-i128:128-f80:128-n8:16:32:64-S128"
target triple = "x86_64-unknown-linux-gnu"

%"class.Imf_3_2::TypedAttribute" = type { %"class.Imf_3_2::Attribute", %"class.Imf_3_2::TileDescription" }
%"class.Imf_3_2::Attribute" = type { ptr }
%"class.Imf_3_2::TileDescription" = type { i32, i32, i32, i32 }

; Function Attrs: mustprogress uwtable
define linkonce_odr hidden noundef zeroext i1 @_ZN7Imf_3_28StreamIO9readCharsERNS_7IStreamEPci(ptr noundef nonnull align 8 dereferenceable(40) %is, ptr noundef %c, i32 noundef %n) #4 comdat align 2 {
entry:
  %is.addr = alloca ptr, align 8
  %c.addr = alloca ptr, align 8
  %n.addr = alloca i32, align 4
  store ptr %is, ptr %is.addr, align 8
  store ptr %c, ptr %c.addr, align 8
  store i32 %n, ptr %n.addr, align 4
  %0 = load ptr, ptr %is.addr, align 8
  %1 = load ptr, ptr %c.addr, align 8
  %2 = load i32, ptr %n.addr, align 4
  %vtable = load ptr, ptr %0, align 8
  %vfn = getelementptr inbounds ptr, ptr %vtable, i64 3
  %3 = load ptr, ptr %vfn, align 8
  %call = call noundef zeroext i1 %3(ptr noundef nonnull align 8 dereferenceable(40) %0, ptr noundef %1, i32 noundef %2)
  ret i1 %call
}

; Function Attrs: mustprogress uwtable
define linkonce_odr hidden void @_ZN7Imf_3_23Xdr17readUnsignedCharsINS_8StreamIOENS_7IStreamEEEvRT0_Phi(ptr noundef nonnull align 8 dereferenceable(40) %in, ptr noundef %c, i32 noundef %n) #4 comdat {
entry:
  %in.addr = alloca ptr, align 8
  %c.addr = alloca ptr, align 8
  %n.addr = alloca i32, align 4
  store ptr %in, ptr %in.addr, align 8
  store ptr %c, ptr %c.addr, align 8
  store i32 %n, ptr %n.addr, align 4
  %0 = load ptr, ptr %in.addr, align 8
  %1 = load ptr, ptr %c.addr, align 8
  %2 = load i32, ptr %n.addr, align 4
  %call = call noundef zeroext i1 @_ZN7Imf_3_28StreamIO9readCharsERNS_7IStreamEPci(ptr noundef nonnull align 8 dereferenceable(40) %0, ptr noundef %1, i32 noundef %2)
  ret void
}

; Function Attrs: mustprogress uwtable
define linkonce_odr hidden void @_ZN7Imf_3_23Xdr4readINS_8StreamIOENS_7IStreamEEEvRT0_Rh(ptr noundef nonnull align 8 dereferenceable(40) %in, ptr noundef nonnull align 1 dereferenceable(1) %v) #4 comdat {
entry:
  %in.addr = alloca ptr, align 8
  %v.addr = alloca ptr, align 8
  store ptr %in, ptr %in.addr, align 8
  store ptr %v, ptr %v.addr, align 8
  %0 = load ptr, ptr %in.addr, align 8
  %1 = load ptr, ptr %v.addr, align 8
  call void @_ZN7Imf_3_23Xdr17readUnsignedCharsINS_8StreamIOENS_7IStreamEEEvRT0_Phi(ptr noundef nonnull align 8 dereferenceable(40) %0, ptr noundef %1, i32 noundef 1)
  ret void
}

; Function Attrs: mustprogress uwtable
define linkonce_odr hidden void @_ZN7Imf_3_23Xdr4readINS_8StreamIOENS_7IStreamEEEvRT0_Rj(ptr noundef nonnull align 8 dereferenceable(40) %in, ptr noundef nonnull align 4 dereferenceable(4) %v) #4 comdat {
entry:
  %in.addr = alloca ptr, align 8
  %v.addr = alloca ptr, align 8
  %b = alloca [4 x i8], align 1
  store ptr %in, ptr %in.addr, align 8
  store ptr %v, ptr %v.addr, align 8
  %0 = load ptr, ptr %in.addr, align 8
  %arraydecay = getelementptr inbounds [4 x i8], ptr %b, i64 0, i64 0
  call void @_ZN7Imf_3_23Xdr17readUnsignedCharsINS_8StreamIOENS_7IStreamEEEvRT0_Phi(ptr noundef nonnull align 8 dereferenceable(40) %0, ptr noundef %arraydecay, i32 noundef 4)
  %arrayidx = getelementptr inbounds [4 x i8], ptr %b, i64 0, i64 0
  %1 = load i8, ptr %arrayidx, align 1
  %conv = zext i8 %1 to i32
  %and = and i32 %conv, 255
  %arrayidx1 = getelementptr inbounds [4 x i8], ptr %b, i64 0, i64 1
  %2 = load i8, ptr %arrayidx1, align 1
  %conv2 = zext i8 %2 to i32
  %shl = shl i32 %conv2, 8
  %and3 = and i32 %shl, 65280
  %or = or i32 %and, %and3
  %arrayidx4 = getelementptr inbounds [4 x i8], ptr %b, i64 0, i64 2
  %3 = load i8, ptr %arrayidx4, align 1
  %conv5 = zext i8 %3 to i32
  %shl6 = shl i32 %conv5, 16
  %and7 = and i32 %shl6, 16711680
  %or8 = or i32 %or, %and7
  %arrayidx9 = getelementptr inbounds [4 x i8], ptr %b, i64 0, i64 3
  %4 = load i8, ptr %arrayidx9, align 1
  %conv10 = zext i8 %4 to i32
  %shl11 = shl i32 %conv10, 24
  %or12 = or i32 %or8, %shl11
  %5 = load ptr, ptr %v.addr, align 8
  store i32 %or12, ptr %5, align 4
  ret void
}

; Function Attrs: mustprogress uwtable
define void @_ZN7Imf_3_214TypedAttributeINS_15TileDescriptionEE13readValueFromERNS_7IStreamEii(ptr noundef nonnull align 8 dereferenceable(24) %this, ptr noundef nonnull align 8 dereferenceable(40) %is, i32 noundef %size, i32 noundef %version) unnamed_addr #4 align 2 {
entry:
  %this.addr = alloca ptr, align 8
  %is.addr = alloca ptr, align 8
  %size.addr = alloca i32, align 4
  %version.addr = alloca i32, align 4
  %tmp = alloca i8, align 1
  %levelMode = alloca i8, align 1
  %levelRoundingMode = alloca i8, align 1
  store ptr %this, ptr %this.addr, align 8
  store ptr %is, ptr %is.addr, align 8
  store i32 %size, ptr %size.addr, align 4
  store i32 %version, ptr %version.addr, align 4
  %this1 = load ptr, ptr %this.addr, align 8
  %0 = load ptr, ptr %is.addr, align 8
  %_value = getelementptr inbounds %"class.Imf_3_2::TypedAttribute", ptr %this1, i32 0, i32 1
  %xSize = getelementptr inbounds %"class.Imf_3_2::TileDescription", ptr %_value, i32 0, i32 0
  call void @_ZN7Imf_3_23Xdr4readINS_8StreamIOENS_7IStreamEEEvRT0_Rj(ptr noundef nonnull align 8 dereferenceable(40) %0, ptr noundef nonnull align 4 dereferenceable(4) %xSize)
  %1 = load ptr, ptr %is.addr, align 8
  %_value2 = getelementptr inbounds %"class.Imf_3_2::TypedAttribute", ptr %this1, i32 0, i32 1
  %ySize = getelementptr inbounds %"class.Imf_3_2::TileDescription", ptr %_value2, i32 0, i32 1
  call void @_ZN7Imf_3_23Xdr4readINS_8StreamIOENS_7IStreamEEEvRT0_Rj(ptr noundef nonnull align 8 dereferenceable(40) %1, ptr noundef nonnull align 4 dereferenceable(4) %ySize)
  %2 = load ptr, ptr %is.addr, align 8
  call void @_ZN7Imf_3_23Xdr4readINS_8StreamIOENS_7IStreamEEEvRT0_Rh(ptr noundef nonnull align 8 dereferenceable(40) %2, ptr noundef nonnull align 1 dereferenceable(1) %tmp)
  %3 = load i8, ptr %tmp, align 1
  %conv = zext i8 %3 to i32
  %and = and i32 %conv, 15
  %conv3 = trunc i32 %and to i8
  store i8 %conv3, ptr %levelMode, align 1
  %4 = load i8, ptr %levelMode, align 1
  %conv4 = zext i8 %4 to i32
  %cmp = icmp sgt i32 %conv4, 3
  br i1 %cmp, label %if.then, label %if.end

if.then:                                          ; preds = %entry
  store i8 3, ptr %levelMode, align 1
  br label %if.end

if.end:                                           ; preds = %if.then, %entry
  %5 = load i8, ptr %levelMode, align 1
  %conv5 = zext i8 %5 to i32
  %_value6 = getelementptr inbounds %"class.Imf_3_2::TypedAttribute", ptr %this1, i32 0, i32 1
  %mode = getelementptr inbounds %"class.Imf_3_2::TileDescription", ptr %_value6, i32 0, i32 2
  store i32 %conv5, ptr %mode, align 8
  %6 = load i8, ptr %tmp, align 1
  %conv7 = zext i8 %6 to i32
  %shr = ashr i32 %conv7, 4
  %and8 = and i32 %shr, 15
  %conv9 = trunc i32 %and8 to i8
  store i8 %conv9, ptr %levelRoundingMode, align 1
  %7 = load i8, ptr %levelRoundingMode, align 1
  %conv10 = zext i8 %7 to i32
  %cmp11 = icmp sgt i32 %conv10, 2
  br i1 %cmp11, label %if.then12, label %if.end13

if.then12:                                        ; preds = %if.end
  store i8 2, ptr %levelRoundingMode, align 1
  br label %if.end13

if.end13:                                         ; preds = %if.then12, %if.end
  %8 = load i8, ptr %levelRoundingMode, align 1
  %conv14 = zext i8 %8 to i32
  %_value15 = getelementptr inbounds %"class.Imf_3_2::TypedAttribute", ptr %this1, i32 0, i32 1
  %roundingMode = getelementptr inbounds %"class.Imf_3_2::TileDescription", ptr %_value15, i32 0, i32 3
  store i32 %conv14, ptr %roundingMode, align 4
  ret void
}