; Function Attrs: mustprogress uwtable
define void @_ZN7Imf_3_214TypedAttributeINS_15TileDescriptionEE13readValueFromERNS_7IStreamEii(ptr nocapture noundef nonnull writeonly align 8 dereferenceable(24) %this, ptr noundef nonnull align 8 dereferenceable(40) %is, i32 %size, i32 %version) unnamed_addr #3 align 2 {
entry:
  %b.i6 = alloca [4 x i8], align 4
  %b.i = alloca [4 x i8], align 4
  %tmp = alloca i8, align 1
  %_value = getelementptr inbounds i8, ptr %this, i64 8
  call void @llvm.lifetime.start.p0(i64 4, ptr nonnull %b.i)
  %vtable.i.i.i = load ptr, ptr %is, align 8
  %vfn.i.i.i = getelementptr inbounds i8, ptr %vtable.i.i.i, i64 24
  %0 = load ptr, ptr %vfn.i.i.i, align 8
  %call.i.i.i = call noundef zeroext i1 %0(ptr noundef nonnull align 8 dereferenceable(40) %is, ptr noundef nonnull %b.i, i32 noundef 4)
  %1 = load i32, ptr %b.i, align 4
  store i32 %1, ptr %_value, align 8
  call void @llvm.lifetime.end.p0(i64 4, ptr nonnull %b.i)
  %ySize = getelementptr inbounds i8, ptr %this, i64 12
  call void @llvm.lifetime.start.p0(i64 4, ptr nonnull %b.i6)
  %vtable.i.i.i7 = load ptr, ptr %is, align 8
  %vfn.i.i.i8 = getelementptr inbounds i8, ptr %vtable.i.i.i7, i64 24
  %2 = load ptr, ptr %vfn.i.i.i8, align 8
  %call.i.i.i9 = call noundef zeroext i1 %2(ptr noundef nonnull align 8 dereferenceable(40) %is, ptr noundef nonnull %b.i6, i32 noundef 4)
  %3 = load i32, ptr %b.i6, align 4
  store i32 %3, ptr %ySize, align 4
  call void @llvm.lifetime.end.p0(i64 4, ptr nonnull %b.i6)
  %vtable.i.i.i10 = load ptr, ptr %is, align 8
  %vfn.i.i.i11 = getelementptr inbounds i8, ptr %vtable.i.i.i10, i64 24
  %4 = load ptr, ptr %vfn.i.i.i11, align 8
  %call.i.i.i12 = call noundef zeroext i1 %4(ptr noundef nonnull align 8 dereferenceable(40) %is, ptr noundef nonnull %tmp, i32 noundef 1)
  %5 = load i8, ptr %tmp, align 1
  %6 = and i8 %5, 15
  %spec.store.select = call i8 @llvm.umin.i8(i8 %6, i8 3)
  %conv5 = zext nneg i8 %spec.store.select to i32
  %mode = getelementptr inbounds i8, ptr %this, i64 16
  store i32 %conv5, ptr %mode, align 8
  %7 = lshr i8 %5, 4
  %spec.store.select1 = call i8 @llvm.umin.i8(i8 %7, i8 2)
  %conv14 = zext nneg i8 %spec.store.select1 to i32
  %roundingMode = getelementptr inbounds i8, ptr %this, i64 20
  store i32 %conv14, ptr %roundingMode, align 4
  ret void
}